target datalayout = "e-m:e-p270:32:32-p271:32:32-p272:64:64-i64:64-i128:128-f80:128-n8:16:32:64-S128"
target triple = "x86_64-pc-linux-gnu"

%"class.cv::_InputArray" = type { i32, ptr, %"class.cv::Size_" }
%"class.cv::Size_" = type { i32, i32 }
%"class.cv::Vec" = type { %"class.cv::Matx" }
%"class.cv::Matx" = type { [3 x double] }
%"class.cv::Affine3" = type { %"class.cv::Matx.0" }
%"class.cv::Matx.0" = type { [16 x double] }

; Function Attrs: inlinehint mustprogress nounwind uwtable
define linkonce_odr hidden void @_ZN2cv4MatxIdLi3ELi1EEC2Eddd(ptr noundef nonnull align 8 dereferenceable(24) %0, double noundef %1, double noundef %2, double noundef %3) unnamed_addr #9 comdat align 2 {
  %5 = alloca ptr, align 8
  %6 = alloca double, align 8
  %7 = alloca double, align 8
  %8 = alloca double, align 8
  %9 = alloca i32, align 4
  store ptr %0, ptr %5, align 8, !tbaa !41
  store double %1, ptr %6, align 8, !tbaa !12
  store double %2, ptr %7, align 8, !tbaa !12
  store double %3, ptr %8, align 8, !tbaa !12
  %10 = load ptr, ptr %5, align 8
  %11 = load double, ptr %6, align 8, !tbaa !12
  %12 = getelementptr inbounds nuw %"class.cv::Matx", ptr %10, i32 0, i32 0
  %13 = getelementptr inbounds [3 x double], ptr %12, i64 0, i64 0
  store double %11, ptr %13, align 8, !tbaa !12
  %14 = load double, ptr %7, align 8, !tbaa !12
  %15 = getelementptr inbounds nuw %"class.cv::Matx", ptr %10, i32 0, i32 0
  %16 = getelementptr inbounds [3 x double], ptr %15, i64 0, i64 1
  store double %14, ptr %16, align 8, !tbaa !12
  %17 = load double, ptr %8, align 8, !tbaa !12
  %18 = getelementptr inbounds nuw %"class.cv::Matx", ptr %10, i32 0, i32 0
  %19 = getelementptr inbounds [3 x double], ptr %18, i64 0, i64 2
  store double %17, ptr %19, align 8, !tbaa !12
  call void @llvm.lifetime.start.p0(i64 4, ptr %9) #3
  store i32 3, ptr %9, align 4, !tbaa !14
  br label %20

20:                                               ; preds = %29, %4
  %21 = load i32, ptr %9, align 4, !tbaa !14
  %22 = icmp slt i32 %21, 3
  br i1 %22, label %24, label %23

23:                                               ; preds = %20
  call void @llvm.lifetime.end.p0(i64 4, ptr %9) #3
  br label %32

24:                                               ; preds = %20
  %25 = getelementptr inbounds nuw %"class.cv::Matx", ptr %10, i32 0, i32 0
  %26 = load i32, ptr %9, align 4, !tbaa !14
  %27 = sext i32 %26 to i64
  %28 = getelementptr inbounds [3 x double], ptr %25, i64 0, i64 %27
  store double 0.000000e+00, ptr %28, align 8, !tbaa !12
  br label %29

29:                                               ; preds = %24
  %30 = load i32, ptr %9, align 4, !tbaa !14
  %31 = add nsw i32 %30, 1
  store i32 %31, ptr %9, align 4, !tbaa !14
  br label %20, !llvm.loop !364

32:                                               ; preds = %23
  ret void
}

; Function Attrs: inlinehint mustprogress uwtable
define linkonce_odr hidden void @_ZN2cv3VecIdLi3EEC2Eddd(ptr noundef nonnull align 8 dereferenceable(24) %0, double noundef %1, double noundef %2, double noundef %3) unnamed_addr #6 comdat align 2 {
  %5 = alloca ptr, align 8
  %6 = alloca double, align 8
  %7 = alloca double, align 8
  %8 = alloca double, align 8
  store ptr %0, ptr %5, align 8, !tbaa !18
  store double %1, ptr %6, align 8, !tbaa !12
  store double %2, ptr %7, align 8, !tbaa !12
  store double %3, ptr %8, align 8, !tbaa !12
  %9 = load ptr, ptr %5, align 8
  %10 = load double, ptr %6, align 8, !tbaa !12
  %11 = load double, ptr %7, align 8, !tbaa !12
  %12 = load double, ptr %8, align 8, !tbaa !12
  call void @_ZN2cv4MatxIdLi3ELi1EEC2Eddd(ptr noundef nonnull align 8 dereferenceable(24) %9, double noundef %10, double noundef %11, double noundef %12)
  ret void
}

; Function Attrs: inlinehint mustprogress nounwind uwtable
define linkonce_odr hidden void @_ZN2cv11_InputArray4initEiPKvNS_5Size_IiEE(ptr noundef nonnull align 8 dereferenceable(24) %0, i32 noundef %1, ptr noundef %2, i64 %3) #9 comdat align 2 {
  %5 = alloca %"class.cv::Size_", align 4
  %6 = alloca ptr, align 8
  %7 = alloca i32, align 4
  %8 = alloca ptr, align 8
  store i64 %3, ptr %5, align 4
  store ptr %0, ptr %6, align 8, !tbaa !3
  store i32 %1, ptr %7, align 4, !tbaa !14
  store ptr %2, ptr %8, align 8, !tbaa !283
  %9 = load ptr, ptr %6, align 8
  %10 = load i32, ptr %7, align 4, !tbaa !14
  %11 = getelementptr inbounds nuw %"class.cv::_InputArray", ptr %9, i32 0, i32 0
  store i32 %10, ptr %11, align 8, !tbaa !284
  %12 = load ptr, ptr %8, align 8, !tbaa !283
  %13 = getelementptr inbounds nuw %"class.cv::_InputArray", ptr %9, i32 0, i32 1
  store ptr %12, ptr %13, align 8, !tbaa !54
  %14 = getelementptr inbounds nuw %"class.cv::_InputArray", ptr %9, i32 0, i32 2
  call void @llvm.memcpy.p0.p0.i64(ptr align 8 %14, ptr align 4 %5, i64 8, i1 false), !tbaa.struct !109
  ret void
}

; Function Attrs: inlinehint mustprogress nounwind uwtable
define linkonce_odr hidden void @_ZN2cv5Size_IiEC2Eii(ptr noundef nonnull align 4 dereferenceable(8) %0, i32 noundef %1, i32 noundef %2) unnamed_addr #9 comdat align 2 {
  %4 = alloca ptr, align 8
  %5 = alloca i32, align 4
  %6 = alloca i32, align 4
  store ptr %0, ptr %4, align 8, !tbaa !49
  store i32 %1, ptr %5, align 4, !tbaa !14
  store i32 %2, ptr %6, align 4, !tbaa !14
  %7 = load ptr, ptr %4, align 8
  %8 = getelementptr inbounds nuw %"class.cv::Size_", ptr %7, i32 0, i32 0
  %9 = load i32, ptr %5, align 4, !tbaa !14
  store i32 %9, ptr %8, align 4, !tbaa !51
  %10 = getelementptr inbounds nuw %"class.cv::Size_", ptr %7, i32 0, i32 1
  %11 = load i32, ptr %6, align 4, !tbaa !14
  store i32 %11, ptr %10, align 4, !tbaa !53
  ret void
}

; Function Attrs: inlinehint mustprogress nounwind uwtable
define linkonce_odr hidden void @_ZN2cv5Size_IiEC2Ev(ptr noundef nonnull align 4 dereferenceable(8) %0) unnamed_addr #9 comdat align 2 {
  %2 = alloca ptr, align 8
  store ptr %0, ptr %2, align 8, !tbaa !49
  %3 = load ptr, ptr %2, align 8
  %4 = getelementptr inbounds nuw %"class.cv::Size_", ptr %3, i32 0, i32 0
  store i32 0, ptr %4, align 4, !tbaa !51
  %5 = getelementptr inbounds nuw %"class.cv::Size_", ptr %3, i32 0, i32 1
  store i32 0, ptr %5, align 4, !tbaa !53
  ret void
}

; Function Attrs: inlinehint mustprogress nounwind uwtable
define linkonce_odr hidden void @_ZN2cv11_InputArrayD2Ev(ptr noundef nonnull align 8 dereferenceable(24) %0) unnamed_addr #9 comdat align 2 {
  %2 = alloca ptr, align 8
  store ptr %0, ptr %2, align 8, !tbaa !3
  ret void
}

; Function Attrs: inlinehint mustprogress uwtable
define linkonce_odr hidden void @_ZNK2cv7Affine3IdE11translationEv(ptr dead_on_unwind noalias writable sret(%"class.cv::Vec") align 8 %0, ptr noundef nonnull align 8 dereferenceable(128) %1) #6 comdat align 2 {
  %3 = alloca ptr, align 8
  %4 = alloca ptr, align 8
  store ptr %0, ptr %3, align 8
  store ptr %1, ptr %4, align 8, !tbaa !10
  %5 = load ptr, ptr %4, align 8
  %6 = getelementptr inbounds nuw %"class.cv::Affine3", ptr %5, i32 0, i32 0
  %7 = getelementptr inbounds nuw %"class.cv::Matx.0", ptr %6, i32 0, i32 0
  %8 = getelementptr inbounds [16 x double], ptr %7, i64 0, i64 3
  %9 = load double, ptr %8, align 8, !tbaa !12
  %10 = getelementptr inbounds nuw %"class.cv::Affine3", ptr %5, i32 0, i32 0
  %11 = getelementptr inbounds nuw %"class.cv::Matx.0", ptr %10, i32 0, i32 0
  %12 = getelementptr inbounds [16 x double], ptr %11, i64 0, i64 7
  %13 = load double, ptr %12, align 8, !tbaa !12
  %14 = getelementptr inbounds nuw %"class.cv::Affine3", ptr %5, i32 0, i32 0
  %15 = getelementptr inbounds nuw %"class.cv::Matx.0", ptr %14, i32 0, i32 0
  %16 = getelementptr inbounds [16 x double], ptr %15, i64 0, i64 11
  %17 = load double, ptr %16, align 8, !tbaa !12
  call void @_ZN2cv3VecIdLi3EEC2Eddd(ptr noundef nonnull align 8 dereferenceable(24) %0, double noundef %9, double noundef %13, double noundef %17)
  ret void
}

; Function Attrs: inlinehint mustprogress uwtable
define linkonce_odr hidden void @_ZN2cv11_InputArrayC2IdLi3ELi1EEERKNS_4MatxIT_XT0_EXT1_EEE(ptr noundef nonnull align 8 dereferenceable(24) %0, ptr noundef nonnull align 8 dereferenceable(24) %1) unnamed_addr #6 comdat align 2 {
  %3 = alloca ptr, align 8
  %4 = alloca ptr, align 8
  %5 = alloca %"class.cv::Size_", align 4
  store ptr %0, ptr %3, align 8, !tbaa !3
  store ptr %1, ptr %4, align 8, !tbaa !41
  %6 = load ptr, ptr %3, align 8
  %7 = getelementptr inbounds nuw %"class.cv::_InputArray", ptr %6, i32 0, i32 2
  call void @_ZN2cv5Size_IiEC2Ev(ptr noundef nonnull align 4 dereferenceable(8) %7)
  %8 = load ptr, ptr %4, align 8, !tbaa !41
  call void @_ZN2cv5Size_IiEC2Eii(ptr noundef nonnull align 4 dereferenceable(8) %5, i32 noundef 1, i32 noundef 3)
  %9 = load i64, ptr %5, align 4
  call void @_ZN2cv11_InputArray4initEiPKvNS_5Size_IiEE(ptr noundef nonnull align 8 dereferenceable(24) %6, i32 noundef -1056833530, ptr noundef %8, i64 %9)
  ret void
}

; Function Attrs: mustprogress uwtable
define void @_ZN2cv7omnidir13projectPointsERKNS_11_InputArrayERKNS_12_OutputArrayERKNS_7Affine3IdEES3_dS3_S6_(ptr noundef nonnull align 8 dereferenceable(24) %0, ptr noundef nonnull align 8 dereferenceable(24) %1, ptr noundef nonnull align 8 dereferenceable(128) %2, ptr noundef nonnull align 8 dereferenceable(24) %3, double noundef %4, ptr noundef nonnull align 8 dereferenceable(24) %5, ptr noundef nonnull align 8 dereferenceable(24) %6) #4 personality ptr @__gxx_personality_v0 {
  %8 = alloca ptr, align 8
  %9 = alloca ptr, align 8
  %10 = alloca ptr, align 8
  %11 = alloca ptr, align 8
  %12 = alloca double, align 8
  %13 = alloca ptr, align 8
  %14 = alloca ptr, align 8
  %15 = alloca %"class.cv::_InputArray", align 8
  %16 = alloca %"class.cv::Vec", align 8
  %17 = alloca %"class.cv::_InputArray", align 8
  %18 = alloca %"class.cv::Vec", align 8
  %19 = alloca ptr, align 8
  %20 = alloca i32, align 4
  store ptr %0, ptr %8, align 8, !tbaa !3
  store ptr %1, ptr %9, align 8, !tbaa !8
  store ptr %2, ptr %10, align 8, !tbaa !10
  store ptr %3, ptr %11, align 8, !tbaa !3
  store double %4, ptr %12, align 8, !tbaa !12
  store ptr %5, ptr %13, align 8, !tbaa !3
  store ptr %6, ptr %14, align 8, !tbaa !8
  %21 = load ptr, ptr %8, align 8, !tbaa !3
  %22 = load ptr, ptr %9, align 8, !tbaa !8
  call void @llvm.lifetime.start.p0(i64 24, ptr %15) #3
  call void @llvm.lifetime.start.p0(i64 24, ptr %16) #3
  %23 = load ptr, ptr %10, align 8, !tbaa !10
  call void @_ZNK2cv7Affine3IdE4rvecEv(ptr dead_on_unwind writable sret(%"class.cv::Vec") align 8 %16, ptr noundef nonnull align 8 dereferenceable(128) %23)
  call void @_ZN2cv11_InputArrayC2IdLi3ELi1EEERKNS_4MatxIT_XT0_EXT1_EEE(ptr noundef nonnull align 8 dereferenceable(24) %15, ptr noundef nonnull align 8 dereferenceable(24) %16)
  call void @llvm.lifetime.start.p0(i64 24, ptr %17) #3
  call void @llvm.lifetime.start.p0(i64 24, ptr %18) #3
  %24 = load ptr, ptr %10, align 8, !tbaa !10
  invoke void @_ZNK2cv7Affine3IdE11translationEv(ptr dead_on_unwind writable sret(%"class.cv::Vec") align 8 %18, ptr noundef nonnull align 8 dereferenceable(128) %24)
          to label %25 unwind label %32

25:                                               ; preds = %7
  invoke void @_ZN2cv11_InputArrayC2IdLi3ELi1EEERKNS_4MatxIT_XT0_EXT1_EEE(ptr noundef nonnull align 8 dereferenceable(24) %17, ptr noundef nonnull align 8 dereferenceable(24) %18)
          to label %26 unwind label %32

26:                                               ; preds = %25
  %27 = load ptr, ptr %11, align 8, !tbaa !3
  %28 = load double, ptr %12, align 8, !tbaa !12
  %29 = load ptr, ptr %13, align 8, !tbaa !3
  %30 = load ptr, ptr %14, align 8, !tbaa !8
  invoke void @_ZN2cv7omnidir13projectPointsERKNS_11_InputArrayERKNS_12_OutputArrayES3_S3_S3_dS3_S6_(ptr noundef nonnull align 8 dereferenceable(24) %21, ptr noundef nonnull align 8 dereferenceable(24) %22, ptr noundef nonnull align 8 dereferenceable(24) %15, ptr noundef nonnull align 8 dereferenceable(24) %17, ptr noundef nonnull align 8 dereferenceable(24) %27, double noundef %28, ptr noundef nonnull align 8 dereferenceable(24) %29, ptr noundef nonnull align 8 dereferenceable(24) %30)
          to label %31 unwind label %36

31:                                               ; preds = %26
  call void @_ZN2cv11_InputArrayD2Ev(ptr noundef nonnull align 8 dereferenceable(24) %17) #3
  call void @llvm.lifetime.end.p0(i64 24, ptr %18) #3
  call void @llvm.lifetime.end.p0(i64 24, ptr %17) #3
  call void @_ZN2cv11_InputArrayD2Ev(ptr noundef nonnull align 8 dereferenceable(24) %15) #3
  call void @llvm.lifetime.end.p0(i64 24, ptr %16) #3
  call void @llvm.lifetime.end.p0(i64 24, ptr %15) #3
  ret void

32:                                               ; preds = %25, %7
  %33 = landingpad { ptr, i32 }
          cleanup
  %34 = extractvalue { ptr, i32 } %33, 0
  store ptr %34, ptr %19, align 8
  %35 = extractvalue { ptr, i32 } %33, 1
  store i32 %35, ptr %20, align 4
  br label %40

36:                                               ; preds = %26
  %37 = landingpad { ptr, i32 }
          cleanup
  %38 = extractvalue { ptr, i32 } %37, 0
  store ptr %38, ptr %19, align 8
  %39 = extractvalue { ptr, i32 } %37, 1
  store i32 %39, ptr %20, align 4
  call void @_ZN2cv11_InputArrayD2Ev(ptr noundef nonnull align 8 dereferenceable(24) %17) #3
  br label %40

40:                                               ; preds = %36, %32
  call void @llvm.lifetime.end.p0(i64 24, ptr %18) #3
  call void @llvm.lifetime.end.p0(i64 24, ptr %17) #3
  call void @_ZN2cv11_InputArrayD2Ev(ptr noundef nonnull align 8 dereferenceable(24) %15) #3
  call void @llvm.lifetime.end.p0(i64 24, ptr %16) #3
  call void @llvm.lifetime.end.p0(i64 24, ptr %15) #3
  br label %41

41:                                               ; preds = %40
  %42 = load ptr, ptr %19, align 8
  %43 = load i32, ptr %20, align 4
  %44 = insertvalue { ptr, i32 } poison, ptr %42, 0
  %45 = insertvalue { ptr, i32 } %44, i32 %43, 1
  resume { ptr, i32 } %45
}