; Function Attrs: mustprogress uwtable
define void @_ZN2cv7omnidir13projectPointsERKNS_11_InputArrayERKNS_12_OutputArrayERKNS_7Affine3IdEES3_dS3_S6_(ptr noundef nonnull align 8 dereferenceable(24) %0, ptr noundef nonnull align 8 dereferenceable(24) %1, ptr noundef nonnull align 8 dereferenceable(128) %2, ptr noundef nonnull align 8 dereferenceable(24) %3, double noundef %4, ptr noundef nonnull align 8 dereferenceable(24) %5, ptr noundef nonnull align 8 dereferenceable(24) %6) local_unnamed_addr #3 personality ptr @__gxx_personality_v0 {
  %8 = alloca %"class.cv::_InputArray", align 8
  %9 = alloca %"class.cv::Vec", align 8
  %10 = alloca %"class.cv::_InputArray", align 8
  %11 = alloca %"class.cv::Vec", align 8
  call void @llvm.lifetime.start.p0(i64 24, ptr nonnull %8) #24
  call void @llvm.lifetime.start.p0(i64 24, ptr nonnull %9) #24
  call void @_ZNK2cv7Affine3IdE4rvecEv(ptr dead_on_unwind nonnull writable sret(%"class.cv::Vec") align 8 %9, ptr noundef nonnull align 8 dereferenceable(128) %2)
  %12 = getelementptr inbounds nuw i8, ptr %8, i64 16
  store i32 -1056833530, ptr %8, align 8, !tbaa !3
  %13 = getelementptr inbounds nuw i8, ptr %8, i64 8
  store ptr %9, ptr %13, align 8, !tbaa !10
  store i64 12884901889, ptr %12, align 8
  call void @llvm.lifetime.start.p0(i64 24, ptr nonnull %10) #24
  call void @llvm.lifetime.start.p0(i64 24, ptr nonnull %11) #24
  call void @llvm.experimental.noalias.scope.decl(metadata !11)
  %14 = getelementptr inbounds nuw i8, ptr %2, i64 24
  %15 = load double, ptr %14, align 8, !tbaa !14, !noalias !11
  %16 = getelementptr inbounds nuw i8, ptr %2, i64 56
  %17 = load double, ptr %16, align 8, !tbaa !14, !noalias !11
  %18 = getelementptr inbounds nuw i8, ptr %2, i64 88
  %19 = load double, ptr %18, align 8, !tbaa !14, !noalias !11
  store double %15, ptr %11, align 8, !tbaa !14, !alias.scope !11
  %20 = getelementptr inbounds nuw i8, ptr %11, i64 8
  store double %17, ptr %20, align 8, !tbaa !14, !alias.scope !11
  %21 = getelementptr inbounds nuw i8, ptr %11, i64 16
  store double %19, ptr %21, align 8, !tbaa !14, !alias.scope !11
  %22 = getelementptr inbounds nuw i8, ptr %10, i64 16
  store i32 -1056833530, ptr %10, align 8, !tbaa !3
  %23 = getelementptr inbounds nuw i8, ptr %10, i64 8
  store ptr %11, ptr %23, align 8, !tbaa !10
  store i64 12884901889, ptr %22, align 8
  call void @_ZN2cv7omnidir13projectPointsERKNS_11_InputArrayERKNS_12_OutputArrayES3_S3_S3_dS3_S6_(ptr noundef nonnull align 8 dereferenceable(24) %0, ptr noundef nonnull align 8 dereferenceable(24) %1, ptr noundef nonnull align 8 dereferenceable(24) %8, ptr noundef nonnull align 8 dereferenceable(24) %10, ptr noundef nonnull align 8 dereferenceable(24) %3, double noundef %4, ptr noundef nonnull align 8 dereferenceable(24) %5, ptr noundef nonnull align 8 dereferenceable(24) %6)
  call void @llvm.lifetime.end.p0(i64 24, ptr nonnull %11) #24
  call void @llvm.lifetime.end.p0(i64 24, ptr nonnull %10) #24
  call void @llvm.lifetime.end.p0(i64 24, ptr nonnull %9) #24
  call void @llvm.lifetime.end.p0(i64 24, ptr nonnull %8) #24
  ret void
}